; Function Attrs: mustprogress nounwind uwtable
define hidden noundef ptr @_ZN12MutableSpace12cas_allocateEm(ptr noundef nonnull align 8 dereferenceable(56) %0, i64 noundef %1) unnamed_addr #1 align 2 {
  %3 = getelementptr inbounds i8, ptr %0, i64 40
  %4 = getelementptr inbounds i8, ptr %0, i64 48
  br label %5

5:                                                ; preds = %12, %2
  %6 = load volatile ptr, ptr %3, align 8
  tail call void asm sideeffect "", "~{memory},~{dirflag},~{fpsr},~{flags}"() #11, !srcloc !6
  %7 = load ptr, ptr %4, align 8
  %8 = ptrtoint ptr %7 to i64
  %9 = ptrtoint ptr %6 to i64
  %10 = sub i64 %8, %9
  %11 = lshr i64 %10, 3
  %.not = icmp ult i64 %11, %1
  br i1 %.not, label %15, label %12

12:                                               ; preds = %5
  %13 = getelementptr inbounds ptr, ptr %6, i64 %1
  %14 = tail call noundef ptr asm sideeffect "lock cmpxchgq $1,($3)", "={ax},r,{ax},r,~{cc},~{memory},~{dirflag},~{fpsr},~{flags}"(ptr %13, ptr %6, ptr nonnull %3) #11, !srcloc !7
  %.not12 = icmp eq ptr %14, %6
  br i1 %.not12, label %15, label %5, !llvm.loop !8

15:                                               ; preds = %5, %12
  %.0 = phi ptr [ %6, %12 ], [ null, %5 ]
  ret ptr %.0
}